; Function Attrs: nounwind uwtable
define ptr @l_Lean_PrettyPrinter_Delaborator_SubExpr_withBindingBody_x27___rarg(ptr noundef %0, ptr noundef %1, ptr noundef %2, ptr noundef %3, ptr readnone captures(none) %4, ptr noundef %5, ptr noundef %6, ptr noundef %7) #0 {
  %9 = getelementptr inbounds nuw i8, ptr %0, i64 16
  %10 = load ptr, ptr %9, align 8, !tbaa !5
  %11 = ptrtoint ptr %10 to i64
  %12 = and i64 %11, 1
  %.not = icmp eq i64 %12, 0
  br i1 %.not, label %13, label %lean_inc.exit25

13:                                               ; preds = %8
  %.val.i = load i32, ptr %10, align 4, !tbaa !9
  %14 = icmp sgt i32 %.val.i, 0
  br i1 %14, label %15, label %17, !prof !12

15:                                               ; preds = %13
  %16 = add nuw i32 %.val.i, 1
  store i32 %16, ptr %10, align 4, !tbaa !9
  br label %lean_inc.exit25

17:                                               ; preds = %13
  %.not.i = icmp eq i32 %.val.i, 0
  br i1 %.not.i, label %lean_inc.exit25, label %18

18:                                               ; preds = %17
  tail call void @lean_inc_ref_cold(ptr noundef nonnull %10) #5
  br label %lean_inc.exit25

lean_inc.exit25:                                  ; preds = %18, %17, %15, %8
  %19 = ptrtoint ptr %0 to i64
  %20 = and i64 %19, 1
  %.not33 = icmp eq i64 %20, 0
  br i1 %.not33, label %21, label %lean_inc.exit24

21:                                               ; preds = %lean_inc.exit25
  %.val.i26 = load i32, ptr %0, align 4, !tbaa !9
  %22 = icmp sgt i32 %.val.i26, 0
  br i1 %22, label %23, label %25, !prof !12

23:                                               ; preds = %21
  %24 = add nuw i32 %.val.i26, 1
  store i32 %24, ptr %0, align 4, !tbaa !9
  br label %lean_inc.exit24

25:                                               ; preds = %21
  %.not.i27 = icmp eq i32 %.val.i26, 0
  br i1 %.not.i27, label %lean_inc.exit24, label %26

26:                                               ; preds = %25
  tail call void @lean_inc_ref_cold(ptr noundef nonnull %0) #5
  br label %lean_inc.exit24

lean_inc.exit24:                                  ; preds = %26, %25, %23, %lean_inc.exit25
  %27 = load ptr, ptr %9, align 8, !tbaa !5
  %28 = ptrtoint ptr %27 to i64
  %29 = and i64 %28, 1
  %.not.i29 = icmp eq i64 %29, 0
  br i1 %.not.i29, label %30, label %lean_inc.exit.i

30:                                               ; preds = %lean_inc.exit24
  %.val.i.i = load i32, ptr %27, align 4, !tbaa !9
  %31 = icmp sgt i32 %.val.i.i, 0
  br i1 %31, label %32, label %34, !prof !12

32:                                               ; preds = %30
  %33 = add nuw i32 %.val.i.i, 1
  store i32 %33, ptr %27, align 4, !tbaa !9
  br label %lean_inc.exit.i

34:                                               ; preds = %30
  %.not.i.i = icmp eq i32 %.val.i.i, 0
  br i1 %.not.i.i, label %lean_inc.exit.i, label %35

35:                                               ; preds = %34
  tail call void @lean_inc_ref_cold(ptr noundef nonnull %27) #5
  br label %lean_inc.exit.i

lean_inc.exit.i:                                  ; preds = %35, %34, %32, %lean_inc.exit24
  tail call void @lean_inc_heartbeat() #5
  %36 = tail call noalias ptr @mi_malloc_small(i64 noundef 32) #5
  %37 = icmp eq ptr %36, null
  br i1 %37, label %38, label %l_Lean_PrettyPrinter_Delaborator_SubExpr_getExpr___rarg.exit

38:                                               ; preds = %lean_inc.exit.i
  tail call void @lean_internal_panic_out_of_memory() #6
  unreachable

l_Lean_PrettyPrinter_Delaborator_SubExpr_getExpr___rarg.exit: ; preds = %lean_inc.exit.i
  %39 = getelementptr inbounds nuw i8, ptr %36, i64 4
  store i32 1, ptr %36, align 4, !tbaa !9
  store i32 -184549344, ptr %39, align 4
  %40 = getelementptr inbounds nuw i8, ptr %36, i64 8
  store ptr @l_Lean_PrettyPrinter_Delaborator_SubExpr_getExpr___rarg___lambda__1, ptr %40, align 8, !tbaa !5
  %41 = getelementptr inbounds nuw i8, ptr %36, i64 16
  store i16 2, ptr %41, align 8, !tbaa !17
  %42 = getelementptr inbounds nuw i8, ptr %36, i64 18
  store i16 1, ptr %42, align 2, !tbaa !17
  %43 = getelementptr inbounds nuw i8, ptr %36, i64 24
  store ptr %0, ptr %43, align 8, !tbaa !5
  %44 = tail call ptr @lean_apply_4(ptr noundef %27, ptr noundef nonnull inttoptr (i64 1 to ptr), ptr noundef nonnull inttoptr (i64 1 to ptr), ptr noundef %1, ptr noundef nonnull %36) #5
  br i1 %.not, label %45, label %lean_inc.exit

45:                                               ; preds = %l_Lean_PrettyPrinter_Delaborator_SubExpr_getExpr___rarg.exit
  %.val.i30 = load i32, ptr %10, align 4, !tbaa !9
  %46 = icmp sgt i32 %.val.i30, 0
  br i1 %46, label %47, label %49, !prof !12

47:                                               ; preds = %45
  %48 = add nuw i32 %.val.i30, 1
  store i32 %48, ptr %10, align 4, !tbaa !9
  br label %lean_inc.exit

49:                                               ; preds = %45
  %.not.i31 = icmp eq i32 %.val.i30, 0
  br i1 %.not.i31, label %lean_inc.exit, label %50

50:                                               ; preds = %49
  tail call void @lean_inc_ref_cold(ptr noundef nonnull %10) #5
  br label %lean_inc.exit

lean_inc.exit:                                    ; preds = %50, %49, %47, %l_Lean_PrettyPrinter_Delaborator_SubExpr_getExpr___rarg.exit
  tail call void @lean_inc_heartbeat() #5
  %51 = tail call noalias ptr @mi_malloc_small(i64 noundef 80) #5
  %52 = icmp eq ptr %51, null
  br i1 %52, label %53, label %lean_alloc_closure.exit

53:                                               ; preds = %lean_inc.exit
  tail call void @lean_internal_panic_out_of_memory() #6
  unreachable

lean_alloc_closure.exit:                          ; preds = %lean_inc.exit
  %54 = getelementptr inbounds nuw i8, ptr %51, i64 4
  store i32 1, ptr %51, align 4, !tbaa !9
  store i32 -184549296, ptr %54, align 4
  %55 = getelementptr inbounds nuw i8, ptr %51, i64 8
  store ptr @l_Lean_PrettyPrinter_Delaborator_SubExpr_withBindingBody_x27___rarg___lambda__3, ptr %55, align 8, !tbaa !5
  %56 = getelementptr inbounds nuw i8, ptr %51, i64 16
  store i16 8, ptr %56, align 8, !tbaa !17
  %57 = getelementptr inbounds nuw i8, ptr %51, i64 18
  store i16 7, ptr %57, align 2, !tbaa !17
  %58 = getelementptr inbounds nuw i8, ptr %51, i64 24
  store ptr %6, ptr %58, align 8, !tbaa !5
  %59 = getelementptr inbounds nuw i8, ptr %51, i64 32
  store ptr %7, ptr %59, align 8, !tbaa !5
  %60 = getelementptr inbounds nuw i8, ptr %51, i64 40
  store ptr %2, ptr %60, align 8, !tbaa !5
  %61 = getelementptr inbounds nuw i8, ptr %51, i64 48
  store ptr %10, ptr %61, align 8, !tbaa !5
  %62 = getelementptr inbounds nuw i8, ptr %51, i64 56
  store ptr %0, ptr %62, align 8, !tbaa !5
  %63 = getelementptr inbounds nuw i8, ptr %51, i64 64
  store ptr %3, ptr %63, align 8, !tbaa !5
  %64 = getelementptr inbounds nuw i8, ptr %51, i64 72
  store ptr %5, ptr %64, align 8, !tbaa !5
  %65 = tail call ptr @lean_apply_4(ptr noundef %10, ptr noundef nonnull inttoptr (i64 1 to ptr), ptr noundef nonnull inttoptr (i64 1 to ptr), ptr noundef %44, ptr noundef nonnull %51) #5
  ret ptr %65
}